target datalayout = "e-m:e-p270:32:32-p271:32:32-p272:64:64-i64:64-i128:128-f80:128-n8:16:32:64-S128"
target triple = "x86_64-pc-linux-gnu"

; Function Attrs: mustprogress uwtable
define noundef zeroext i1 @_ZN4base19WriteFileDescriptorEiPKci(i32 noundef %0, ptr noundef %1, i32 noundef %2) #0 {
  %4 = alloca i1, align 1
  %5 = alloca i32, align 4
  %6 = alloca ptr, align 8
  %7 = alloca i32, align 4
  %8 = alloca i64, align 8
  %9 = alloca i64, align 8
  %10 = alloca i32, align 4
  %11 = alloca i64, align 8
  %12 = alloca i64, align 8
  store i32 %0, ptr %5, align 4, !tbaa !20
  store ptr %1, ptr %6, align 8, !tbaa !12
  store i32 %2, ptr %7, align 4, !tbaa !20
  call void @llvm.lifetime.start.p0(i64 8, ptr %8) #10
  store i64 0, ptr %8, align 8, !tbaa !40
  call void @llvm.lifetime.start.p0(i64 8, ptr %9) #10
  store i64 0, ptr %9, align 8, !tbaa !40
  br label %13

13:                                               ; preds = %46, %3
  %14 = load i64, ptr %8, align 8, !tbaa !40
  %15 = load i32, ptr %7, align 4, !tbaa !20
  %16 = sext i32 %15 to i64
  %17 = icmp slt i64 %14, %16
  br i1 %17, label %19, label %18

18:                                               ; preds = %13
  store i32 2, ptr %10, align 4
  br label %50

19:                                               ; preds = %13
  call void @llvm.lifetime.start.p0(i64 8, ptr %11) #10
  br label %20

20:                                               ; preds = %37, %19
  %21 = load i32, ptr %5, align 4, !tbaa !20
  %22 = load ptr, ptr %6, align 8, !tbaa !12
  %23 = load i64, ptr %8, align 8, !tbaa !40
  %24 = getelementptr inbounds i8, ptr %22, i64 %23
  %25 = load i32, ptr %7, align 4, !tbaa !20
  %26 = sext i32 %25 to i64
  %27 = load i64, ptr %8, align 8, !tbaa !40
  %28 = sub nsw i64 %26, %27
  %29 = call i64 @write(i32 noundef %21, ptr noundef %24, i64 noundef %28)
  store i64 %29, ptr %11, align 8, !tbaa !40
  br label %30

30:                                               ; preds = %20
  %31 = load i64, ptr %11, align 8, !tbaa !40
  %32 = icmp eq i64 %31, -1
  br i1 %32, label %33, label %37

33:                                               ; preds = %30
  %34 = call ptr @__errno_location() #17
  %35 = load i32, ptr %34, align 4, !tbaa !20
  %36 = icmp eq i32 %35, 4
  br label %37

37:                                               ; preds = %33, %30
  %38 = phi i1 [ false, %30 ], [ %36, %33 ]
  br i1 %38, label %20, label %39, !llvm.loop !104

39:                                               ; preds = %37
  %40 = load i64, ptr %11, align 8, !tbaa !40
  store i64 %40, ptr %12, align 8, !tbaa !40
  call void @llvm.lifetime.end.p0(i64 8, ptr %11) #10
  %41 = load i64, ptr %12, align 8, !tbaa !40
  store i64 %41, ptr %9, align 8, !tbaa !40
  %42 = load i64, ptr %9, align 8, !tbaa !40
  %43 = icmp slt i64 %42, 0
  br i1 %43, label %44, label %45

44:                                               ; preds = %39
  store i1 false, ptr %4, align 1
  store i32 1, ptr %10, align 4
  br label %50

45:                                               ; preds = %39
  br label %46

46:                                               ; preds = %45
  %47 = load i64, ptr %9, align 8, !tbaa !40
  %48 = load i64, ptr %8, align 8, !tbaa !40
  %49 = add nsw i64 %48, %47
  store i64 %49, ptr %8, align 8, !tbaa !40
  br label %13, !llvm.loop !105

50:                                               ; preds = %44, %18
  call void @llvm.lifetime.end.p0(i64 8, ptr %9) #10
  %51 = load i32, ptr %10, align 4
  switch i32 %51, label %53 [
    i32 2, label %52
  ]

52:                                               ; preds = %50
  store i1 true, ptr %4, align 1
  store i32 1, ptr %10, align 4
  br label %53

53:                                               ; preds = %52, %50
  call void @llvm.lifetime.end.p0(i64 8, ptr %8) #10
  %54 = load i1, ptr %4, align 1
  ret i1 %54
}