; Function Attrs: mustprogress nofree uwtable
define noundef zeroext i1 @_ZN4base19WriteFileDescriptorEiPKci(i32 noundef %0, ptr noundef readonly captures(none) %1, i32 noundef %2) local_unnamed_addr #8 {
  %4 = sext i32 %2 to i64
  %.not23 = icmp slt i32 %2, 1
  br i1 %.not23, label %.critedge18, label %.preheader

.preheader:                                       ; preds = %3, %.critedge
  %.01424 = phi i64 [ %15, %.critedge ], [ 0, %3 ]
  %5 = getelementptr inbounds nuw i8, ptr %1, i64 %.01424
  %6 = sub nsw i64 %4, %.01424
  br label %7

7:                                                ; preds = %.preheader, %10
  %8 = tail call i64 @write(i32 noundef %0, ptr noundef %5, i64 noundef %6)
  %9 = icmp eq i64 %8, -1
  br i1 %9, label %10, label %.critedge

10:                                               ; preds = %7
  %11 = tail call ptr @__errno_location() #25
  %12 = load i32, ptr %11, align 4, !tbaa !11
  %13 = icmp eq i32 %12, 4
  br i1 %13, label %7, label %.critedge18, !llvm.loop !91

.critedge:                                        ; preds = %7
  %14 = icmp sgt i64 %8, -1
  %15 = add nuw nsw i64 %8, %.01424
  %.not.not = icmp slt i64 %15, %4
  %or.cond = select i1 %14, i1 %.not.not, i1 false
  br i1 %or.cond, label %.preheader, label %.critedge18, !llvm.loop !90

.critedge18:                                      ; preds = %.critedge, %10, %3
  %.not22 = phi i1 [ true, %3 ], [ false, %10 ], [ %14, %.critedge ]
  ret i1 %.not22
}